; Function Attrs: mustprogress uwtable
define void @_ZNK32pxrInternal_v0_24__pxrReserved__36HdsiPrimTypeNoticeBatchingSceneIndex7GetPrimERKNS_7SdfPathE(ptr dead_on_unwind noalias writable sret(%"struct.pxrInternal_v0_24__pxrReserved__::HdSceneIndexPrim") align 8 %0, ptr nocapture noundef nonnull readonly align 8 dereferenceable(280) %1, ptr noundef nonnull align 4 dereferenceable(8) %2) unnamed_addr #1 align 2 {
  %4 = alloca %"class.pxrInternal_v0_24__pxrReserved__::TfCallContext", align 8
  %5 = getelementptr inbounds nuw i8, ptr %1, i64 176
  %6 = load i8, ptr %5, align 8
  %7 = trunc i8 %6 to i1
  br i1 %7, label %9, label %8

8:                                                ; preds = %3
  tail call void @llvm.memset.p0.i64(ptr noundef nonnull align 8 dereferenceable(24) %0, i8 0, i64 24, i1 false)
  br label %20

9:                                                ; preds = %3
  %10 = getelementptr inbounds nuw i8, ptr %1, i64 120
  call void @llvm.lifetime.start.p0(i64 40, ptr nonnull %4)
  %11 = load ptr, ptr %10, align 8
  %.not.i = icmp eq ptr %11, null
  br i1 %.not.i, label %12, label %_ZNK32pxrInternal_v0_24__pxrReserved__8TfRefPtrINS_16HdSceneIndexBaseEEptEv.exit

12:                                               ; preds = %9
  store ptr @.str.17, ptr %4, align 8
  %13 = getelementptr inbounds nuw i8, ptr %4, i64 8
  store ptr @__func__._ZNK32pxrInternal_v0_24__pxrReserved__8TfRefPtrINS_16HdSceneIndexBaseEEptEv, ptr %13, align 8
  %14 = getelementptr inbounds nuw i8, ptr %4, i64 16
  store i64 936, ptr %14, align 8
  %15 = getelementptr inbounds nuw i8, ptr %4, i64 24
  store ptr @__PRETTY_FUNCTION__._ZNK32pxrInternal_v0_24__pxrReserved__8TfRefPtrINS_16HdSceneIndexBaseEEptEv, ptr %15, align 8
  %16 = getelementptr inbounds nuw i8, ptr %4, i64 32
  store i8 0, ptr %16, align 8
  call void @_ZN32pxrInternal_v0_24__pxrReserved__40Tf_PostNullSmartPtrDereferenceFatalErrorERKNS_13TfCallContextEPKc(ptr noundef nonnull align 8 dereferenceable(33) %4, ptr noundef nonnull @_ZTSN32pxrInternal_v0_24__pxrReserved__8TfRefPtrINS_16HdSceneIndexBaseEEE) #26
  unreachable

_ZNK32pxrInternal_v0_24__pxrReserved__8TfRefPtrINS_16HdSceneIndexBaseEEptEv.exit: ; preds = %9
  call void @llvm.lifetime.end.p0(i64 40, ptr nonnull %4)
  %17 = load ptr, ptr %11, align 8
  %18 = getelementptr inbounds i8, ptr %17, i64 16
  %19 = load ptr, ptr %18, align 8
  tail call void %19(ptr dead_on_unwind writable sret(%"struct.pxrInternal_v0_24__pxrReserved__::HdSceneIndexPrim") align 8 %0, ptr noundef nonnull align 8 dereferenceable(120) %11, ptr noundef nonnull align 4 dereferenceable(8) %2)
  br label %20

20:                                               ; preds = %_ZNK32pxrInternal_v0_24__pxrReserved__8TfRefPtrINS_16HdSceneIndexBaseEEptEv.exit, %8
  ret void
}